	.file	"ass2_15CS10061.c"
	.text
.Ltext0:
	.globl	printStr
	.type	printStr, @function
printStr:
.LFB0:
	.file 1 "ass2_15CS10061.c"
	.loc 1 6 0
	.cfi_startproc
	pushq	%rbp
	.cfi_def_cfa_offset 16
	.cfi_offset 6, -16
	movq	%rsp, %rbp
	.cfi_def_cfa_register 6
	subq	$10048, %rsp
	movq	%rdi, -10040(%rbp)
	.loc 1 6 0
	movq	%fs:40, %rax
	movq	%rax, -8(%rbp)
	xorl	%eax, %eax
	.loc 1 8 0
	movl	$0, -10024(%rbp)
	.loc 1 9 0
	jmp	.L2
.L3:
	.loc 1 11 0
	movl	-10024(%rbp), %eax
	movslq	%eax, %rdx
	movq	-10040(%rbp), %rax
	addq	%rdx, %rax
	movzbl	(%rax), %edx
	movl	-10024(%rbp), %eax
	cltq
	movb	%dl, -10016(%rbp,%rax)
	.loc 1 12 0
	addl	$1, -10024(%rbp)
.L2:
	.loc 1 9 0 discriminator 1
	movl	-10024(%rbp), %eax
	movslq	%eax, %rdx
	movq	-10040(%rbp), %rax
	addq	%rdx, %rax
	movzbl	(%rax), %eax
	testb	%al, %al
	jne	.L3
	.loc 1 15 0
	movl	-10024(%rbp), %eax
	movl	%eax, -10020(%rbp)
	.loc 1 16 0
	leaq	-10016(%rbp), %rax
	movl	-10020(%rbp), %edx
	movq	%rax, %rsi
#APP
# 16 "ass2_15CS10061.c" 1
	movl $1, %eax 
	movl $1, %edi 
	syscall 
	
# 0 "" 2
	.loc 1 23 0
#NO_APP
	movl	-10024(%rbp), %eax
	.loc 1 24 0
	movq	-8(%rbp), %rcx
	xorq	%fs:40, %rcx
	je	.L5
	call	__stack_chk_fail
.L5:
	leave
	.cfi_def_cfa 7, 8
	ret
	.cfi_endproc
.LFE0:
	.size	printStr, .-printStr
	.globl	printInt
	.type	printInt, @function
printInt:
.LFB1:
	.loc 1 26 0
	.cfi_startproc
	pushq	%rbp
	.cfi_def_cfa_offset 16
	.cfi_offset 6, -16
	movq	%rsp, %rbp
	.cfi_def_cfa_register 6
	pushq	%rbx
	subq	$10072, %rsp
	.cfi_offset 3, -24
	movl	%edi, -10068(%rbp)
	.loc 1 26 0
	movq	%fs:40, %rax
	movq	%rax, -24(%rbp)
	xorl	%eax, %eax
	.loc 1 28 0
	movb	$48, -10054(%rbp)
	.loc 1 29 0
	movl	$0, -10052(%rbp)
	.loc 1 30 0
	cmpl	$0, -10068(%rbp)
	jne	.L7
	.loc 1 31 0
	movl	-10052(%rbp), %eax
	leal	1(%rax), %edx
	movl	%edx, -10052(%rbp)
	cltq
	movzbl	-10054(%rbp), %edx
	movb	%dl, -10032(%rbp,%rax)
	jmp	.L8
.L7:
	.loc 1 33 0
	cmpl	$0, -10068(%rbp)
	jns	.L9
	.loc 1 34 0
	movl	-10052(%rbp), %eax
	leal	1(%rax), %edx
	movl	%edx, -10052(%rbp)
	cltq
	movb	$45, -10032(%rbp,%rax)
	.loc 1 35 0
	negl	-10068(%rbp)
	.loc 1 37 0
	jmp	.L10
.L9:
	jmp	.L10
.L11:
.LBB2:
	.loc 1 39 0
	movl	-10068(%rbp), %ecx
	movl	$1717986919, %edx
	movl	%ecx, %eax
	imull	%edx
	sarl	$2, %edx
	movl	%ecx, %eax
	sarl	$31, %eax
	subl	%eax, %edx
	movl	%edx, %eax
	sall	$2, %eax
	addl	%edx, %eax
	addl	%eax, %eax
	subl	%eax, %ecx
	movl	%ecx, %eax
	movl	%eax, -10040(%rbp)
	.loc 1 40 0
	movl	-10052(%rbp), %eax
	leal	1(%rax), %edx
	movl	%edx, -10052(%rbp)
	movl	-10040(%rbp), %edx
	movl	%edx, %ecx
	movzbl	-10054(%rbp), %edx
	addl	%ecx, %edx
	cltq
	movb	%dl, -10032(%rbp,%rax)
	.loc 1 41 0
	movl	-10068(%rbp), %ecx
	movl	$1717986919, %edx
	movl	%ecx, %eax
	imull	%edx
	sarl	$2, %edx
	movl	%ecx, %eax
	sarl	$31, %eax
	subl	%eax, %edx
	movl	%edx, %eax
	movl	%eax, -10068(%rbp)
.L10:
.LBE2:
	.loc 1 37 0 discriminator 1
	cmpl	$0, -10068(%rbp)
	jg	.L11
	.loc 1 43 0
	movzbl	-10032(%rbp), %eax
	cmpb	$45, %al
	jne	.L12
	.loc 1 44 0
	movl	$1, -10048(%rbp)
	jmp	.L13
.L12:
	.loc 1 46 0
	movl	$0, -10048(%rbp)
.L13:
	.loc 1 47 0
	movl	-10052(%rbp), %eax
	subl	$1, %eax
	movl	%eax, -10044(%rbp)
	.loc 1 48 0
	jmp	.L14
.L15:
.LBB3:
	.loc 1 50 0
	movl	-10048(%rbp), %eax
	cltq
	movzbl	-10032(%rbp,%rax), %eax
	movb	%al, -10053(%rbp)
	.loc 1 51 0
	movl	-10048(%rbp), %eax
	leal	1(%rax), %edx
	movl	%edx, -10048(%rbp)
	movl	-10044(%rbp), %edx
	movslq	%edx, %rdx
	movzbl	-10032(%rbp,%rdx), %edx
	cltq
	movb	%dl, -10032(%rbp,%rax)
	.loc 1 52 0
	movl	-10044(%rbp), %eax
	leal	-1(%rax), %edx
	movl	%edx, -10044(%rbp)
	cltq
	movzbl	-10053(%rbp), %edx
	movb	%dl, -10032(%rbp,%rax)
.L14:
.LBE3:
	.loc 1 48 0 discriminator 1
	movl	-10048(%rbp), %eax
	cmpl	-10044(%rbp), %eax
	jl	.L15
.L8:
	.loc 1 56 0
	movl	-10052(%rbp), %eax
	movl	%eax, -10036(%rbp)
	.loc 1 57 0
	leaq	-10032(%rbp), %rax
	movl	-10036(%rbp), %edx
	movq	%rax, %rsi
#APP
# 57 "ass2_15CS10061.c" 1
	movl $1, %eax 
	movl $1, %edi 
	syscall 
	
# 0 "" 2
	.loc 1 64 0
#NO_APP
	movl	-10036(%rbp), %eax
	.loc 1 65 0
	movq	-24(%rbp), %rbx
	xorq	%fs:40, %rbx
	je	.L17
	call	__stack_chk_fail
.L17:
	addq	$10072, %rsp
	popq	%rbx
	popq	%rbp
	.cfi_def_cfa 7, 8
	ret
	.cfi_endproc
.LFE1:
	.size	printInt, .-printInt
	.globl	readInt
	.type	readInt, @function
readInt:
.LFB2:
	.loc 1 67 0
	.cfi_startproc
	pushq	%rbp
	.cfi_def_cfa_offset 16
	.cfi_offset 6, -16
	movq	%rsp, %rbp
	.cfi_def_cfa_register 6
	pushq	%rbx
	subq	$72, %rsp
	.cfi_offset 3, -24
	movq	%rdi, -72(%rbp)
	.loc 1 67 0
	movq	%fs:40, %rax
	movq	%rax, -24(%rbp)
	xorl	%eax, %eax
	.loc 1 70 0
	movl	$0, -60(%rbp)
	movl	$0, -56(%rbp)
.L23:
	.loc 1 72 0
	movl	$0, %eax
	movl	$0, %ecx
	leaq	-61(%rbp), %rsi
	movl	$1, %edx
	movl	%ecx, %edi
#APP
# 72 "ass2_15CS10061.c" 1
	syscall
# 0 "" 2
	.loc 1 73 0
#NO_APP
	movzbl	-61(%rbp), %eax
	cmpb	$9, %al
	je	.L19
	.loc 1 73 0 is_stmt 0 discriminator 1
	movzbl	-61(%rbp), %eax
	cmpb	$10, %al
	je	.L19
	movzbl	-61(%rbp), %eax
	cmpb	$32, %al
	je	.L19
	.loc 1 74 0 is_stmt 1
	movzbl	-61(%rbp), %eax
	movsbl	%al, %eax
	subl	$48, %eax
	cmpl	$9, %eax
	jg	.L20
	.loc 1 74 0 is_stmt 0 discriminator 2
	movzbl	-61(%rbp), %eax
	movsbl	%al, %eax
	subl	$48, %eax
	testl	%eax, %eax
	jns	.L21
.L20:
	.loc 1 74 0 discriminator 1
	movzbl	-61(%rbp), %eax
	cmpb	$45, %al
	je	.L21
	movq	-72(%rbp), %rax
	movl	$1, (%rax)
	.loc 1 78 0 is_stmt 1 discriminator 1
	jmp	.L23
.L21:
	.loc 1 76 0
	movl	-56(%rbp), %eax
	leal	1(%rax), %edx
	movl	%edx, -56(%rbp)
	movzbl	-61(%rbp), %edx
	cltq
	movb	%dl, -48(%rbp,%rax)
	.loc 1 78 0
	jmp	.L23
.L19:
	.loc 1 79 0
	cmpl	$9, -56(%rbp)
	jg	.L24
	.loc 1 79 0 is_stmt 0 discriminator 1
	cmpl	$0, -56(%rbp)
	jne	.L25
.L24:
	.loc 1 80 0 is_stmt 1
	movq	-72(%rbp), %rax
	movl	$1, (%rax)
	.loc 1 81 0
	movl	$0, %eax
	jmp	.L36
.L25:
	.loc 1 83 0
	movzbl	-48(%rbp), %eax
	cmpb	$45, %al
	jne	.L27
	.loc 1 84 0
	cmpl	$1, -56(%rbp)
	jne	.L28
	.loc 1 85 0
	movq	-72(%rbp), %rax
	movl	$1, (%rax)
	.loc 1 86 0
	movl	$0, %eax
	jmp	.L36
.L28:
	.loc 1 88 0
	movl	$1, -52(%rbp)
	jmp	.L29
.L31:
	.loc 1 89 0
	movl	-52(%rbp), %eax
	cltq
	movzbl	-48(%rbp,%rax), %eax
	cmpb	$45, %al
	jne	.L30
	.loc 1 89 0 is_stmt 0 discriminator 1
	movq	-72(%rbp), %rax
	movl	$1, (%rax)
.L30:
	.loc 1 90 0 is_stmt 1
	movl	-60(%rbp), %edx
	movl	%edx, %eax
	sall	$2, %eax
	addl	%edx, %eax
	addl	%eax, %eax
	movl	%eax, -60(%rbp)
	.loc 1 91 0
	movl	-52(%rbp), %eax
	cltq
	movzbl	-48(%rbp,%rax), %eax
	movsbl	%al, %eax
	subl	$48, %eax
	addl	%eax, -60(%rbp)
	.loc 1 88 0
	addl	$1, -52(%rbp)
.L29:
	.loc 1 88 0 is_stmt 0 discriminator 1
	movl	-52(%rbp), %eax
	cmpl	-56(%rbp), %eax
	jl	.L31
	.loc 1 93 0 is_stmt 1
	negl	-60(%rbp)
	jmp	.L32
.L27:
	.loc 1 96 0
	movl	$0, -52(%rbp)
	jmp	.L33
.L35:
	.loc 1 97 0
	movl	-52(%rbp), %eax
	cltq
	movzbl	-48(%rbp,%rax), %eax
	cmpb	$45, %al
	jne	.L34
	.loc 1 97 0 is_stmt 0 discriminator 1
	movq	-72(%rbp), %rax
	movl	$1, (%rax)
.L34:
	.loc 1 98 0 is_stmt 1
	movl	-60(%rbp), %edx
	movl	%edx, %eax
	sall	$2, %eax
	addl	%edx, %eax
	addl	%eax, %eax
	movl	%eax, -60(%rbp)
	.loc 1 99 0
	movl	-52(%rbp), %eax
	cltq
	movzbl	-48(%rbp,%rax), %eax
	movsbl	%al, %eax
	subl	$48, %eax
	addl	%eax, -60(%rbp)
	.loc 1 96 0
	addl	$1, -52(%rbp)
.L33:
	.loc 1 96 0 is_stmt 0 discriminator 1
	movl	-52(%rbp), %eax
	cmpl	-56(%rbp), %eax
	jl	.L35
.L32:
	.loc 1 102 0 is_stmt 1
	movl	-60(%rbp), %eax
.L36:
	.loc 1 103 0
	movq	-24(%rbp), %rbx
	xorq	%fs:40, %rbx
	je	.L37
	call	__stack_chk_fail
.L37:
	addq	$72, %rsp
	popq	%rbx
	popq	%rbp
	.cfi_def_cfa 7, 8
	ret
	.cfi_endproc
.LFE2:
	.size	readInt, .-readInt
	.globl	readFlt
	.type	readFlt, @function
readFlt:
.LFB3:
	.loc 1 105 0
	.cfi_startproc
	pushq	%rbp
	.cfi_def_cfa_offset 16
	.cfi_offset 6, -16
	movq	%rsp, %rbp
	.cfi_def_cfa_register 6
	pushq	%rbx
	subq	$88, %rsp
	.cfi_offset 3, -24
	movq	%rdi, -88(%rbp)
	movq	%rsp, %rax
	movq	%rax, %r10
	.loc 1 106 0
	movl	$46, -48(%rbp)
	.loc 1 107 0
	movl	-48(%rbp), %eax
	movslq	%eax, %rsi
	subq	$1, %rsi
	movq	%rsi, -32(%rbp)
	movslq	%eax, %rsi
	movq	%rsi, %r8
	movl	$0, %r9d
	movslq	%eax, %rsi
	movq	%rsi, %rdx
	movl	$0, %ecx
	cltq
	movl	$16, %edx
	subq	$1, %rdx
	addq	%rdx, %rax
	movl	$16, %ebx
	movl	$0, %edx
	divq	%rbx
	imulq	$16, %rax, %rax
	subq	%rax, %rsp
	movq	%rsp, %rax
	addq	$0, %rax
	movq	%rax, -24(%rbp)
	movb	$48, -73(%rbp)
	.loc 1 108 0
	movl	$1, -72(%rbp)
	movl	$0, -68(%rbp)
	.loc 1 109 0
	movl	.LC0(%rip), %eax
	movl	%eax, -64(%rbp)
	.loc 1 110 0
	movl	.LC0(%rip), %eax
	movl	%eax, -60(%rbp)
	.loc 1 111 0
	movl	$1, -56(%rbp)
	.loc 1 112 0
	movq	-24(%rbp), %rsi
	movl	$0, %eax
	movl	$0, %ecx
	movl	-48(%rbp), %edx
	movl	%ecx, %edi
#APP
# 112 "ass2_15CS10061.c" 1
	syscall 
	
# 0 "" 2
#NO_APP
	movl	%eax, -44(%rbp)
	.loc 1 117 0
	movq	-24(%rbp), %rax
	movzbl	(%rax), %eax
	cmpb	$45, %al
	jne	.L39
	.loc 1 118 0
	movl	$-1, -72(%rbp)
	.loc 1 119 0
	movl	$1, -68(%rbp)
	.loc 1 121 0
	jmp	.L40
.L39:
	jmp	.L40
.L46:
.LBB4:
	.loc 1 123 0
	movq	-24(%rbp), %rdx
	movl	-68(%rbp), %eax
	cltq
	movzbl	(%rdx,%rax), %eax
	cmpb	$46, %al
	jne	.L41
	.loc 1 124 0
	movl	.LC1(%rip), %eax
	movl	%eax, -60(%rbp)
	.loc 1 125 0
	addl	$1, -68(%rbp)
	.loc 1 126 0
	jmp	.L42
.L41:
	.loc 1 128 0
	movq	-24(%rbp), %rdx
	movl	-68(%rbp), %eax
	cltq
	movzbl	(%rdx,%rax), %eax
	movsbl	%al, %edx
	movsbl	-73(%rbp), %eax
	subl	%eax, %edx
	movl	%edx, %eax
	movl	%eax, -40(%rbp)
	.loc 1 129 0
	cmpl	$0, -40(%rbp)
	js	.L43
	.loc 1 129 0 is_stmt 0 discriminator 1
	cmpl	$9, -40(%rbp)
	jle	.L44
.L43:
	.loc 1 130 0 is_stmt 1
	movl	$1, %eax
	jmp	.L45
.L44:
	.loc 1 133 0
	movss	-64(%rbp), %xmm1
	movss	.LC2(%rip), %xmm0
	mulss	%xmm0, %xmm1
	cvtsi2ss	-40(%rbp), %xmm0
	addss	%xmm1, %xmm0
	movss	%xmm0, -64(%rbp)
	.loc 1 134 0
	addl	$1, -68(%rbp)
.L40:
.LBE4:
	.loc 1 121 0 discriminator 1
	movq	-24(%rbp), %rdx
	movl	-68(%rbp), %eax
	cltq
	movzbl	(%rdx,%rax), %eax
	cmpb	$10, %al
	je	.L42
	.loc 1 121 0 is_stmt 0 discriminator 2
	movl	-68(%rbp), %eax
	cmpl	-48(%rbp), %eax
	jl	.L46
.L42:
	.loc 1 136 0 is_stmt 1
	movss	.LC1(%rip), %xmm0
	ucomiss	-60(%rbp), %xmm0
	jp	.L47
	movss	.LC1(%rip), %xmm0
	ucomiss	-60(%rbp), %xmm0
	jne	.L47
.LBB5:
	.loc 1 138 0
	movl	.LC0(%rip), %eax
	movl	%eax, -60(%rbp)
	.loc 1 140 0
	jmp	.L49
.L58:
.LBB6:
	.loc 1 142 0
	movq	-24(%rbp), %rdx
	movl	-68(%rbp), %eax
	cltq
	movzbl	(%rdx,%rax), %eax
	movsbl	%al, %edx
	movsbl	-73(%rbp), %eax
	subl	%eax, %edx
	movl	%edx, %eax
	movl	%eax, -36(%rbp)
	.loc 1 143 0
	cmpl	$0, -36(%rbp)
	js	.L50
	.loc 1 143 0 is_stmt 0 discriminator 1
	cmpl	$9, -36(%rbp)
	jle	.L51
.L50:
	.loc 1 144 0 is_stmt 1
	movl	$1, %eax
	jmp	.L45
.L51:
	.loc 1 145 0
	movss	-60(%rbp), %xmm1
	movss	.LC2(%rip), %xmm0
	mulss	%xmm1, %xmm0
	ucomiss	.LC3(%rip), %xmm0
	jbe	.L64
	.loc 1 146 0
	cmpl	$5, -36(%rbp)
	jle	.L54
	.loc 1 147 0
	movss	-60(%rbp), %xmm1
	movss	.LC1(%rip), %xmm0
	addss	%xmm1, %xmm0
	movss	%xmm0, -60(%rbp)
	.loc 1 148 0
	jmp	.L47
.L54:
	.loc 1 150 0
	cmpl	$4, -36(%rbp)
	jg	.L55
	.loc 1 151 0
	jmp	.L47
.L55:
	.loc 1 154 0
	movl	-52(%rbp), %eax
	andl	$1, %eax
	testl	%eax, %eax
	jne	.L56
	.loc 1 155 0
	jmp	.L47
.L56:
	.loc 1 157 0
	movss	-60(%rbp), %xmm1
	movss	.LC1(%rip), %xmm0
	addss	%xmm1, %xmm0
	movss	%xmm0, -60(%rbp)
	jmp	.L57
.L64:
	.loc 1 161 0
	movss	-60(%rbp), %xmm1
	movss	.LC2(%rip), %xmm0
	mulss	%xmm0, %xmm1
	cvtsi2ss	-36(%rbp), %xmm0
	addss	%xmm1, %xmm0
	movss	%xmm0, -60(%rbp)
	.loc 1 162 0
	movl	-56(%rbp), %edx
	movl	%edx, %eax
	sall	$2, %eax
	addl	%edx, %eax
	addl	%eax, %eax
	movl	%eax, -56(%rbp)
.L57:
	.loc 1 164 0
	movl	-36(%rbp), %eax
	movl	%eax, -52(%rbp)
	.loc 1 165 0
	addl	$1, -68(%rbp)
.L49:
.LBE6:
	.loc 1 140 0 discriminator 1
	movq	-24(%rbp), %rdx
	movl	-68(%rbp), %eax
	cltq
	movzbl	(%rdx,%rax), %eax
	cmpb	$10, %al
	je	.L47
	.loc 1 140 0 is_stmt 0 discriminator 2
	movl	-68(%rbp), %eax
	cmpl	-48(%rbp), %eax
	jl	.L58
.L47:
.LBE5:
	.loc 1 169 0 is_stmt 1
	cvtsi2ss	-56(%rbp), %xmm0
	movss	-60(%rbp), %xmm1
	divss	%xmm0, %xmm1
	movaps	%xmm1, %xmm0
	movss	%xmm0, -60(%rbp)
	.loc 1 170 0
	movss	-64(%rbp), %xmm0
	addss	-60(%rbp), %xmm0
	movss	%xmm0, -64(%rbp)
	.loc 1 171 0
	cmpl	$-1, -72(%rbp)
	jne	.L59
	.loc 1 172 0
	movss	-64(%rbp), %xmm1
	movss	.LC4(%rip), %xmm0
	xorps	%xmm1, %xmm0
	movq	-88(%rbp), %rax
	movss	%xmm0, (%rax)
	jmp	.L60
.L59:
	.loc 1 174 0
	movq	-88(%rbp), %rdx
	movl	-64(%rbp), %eax
	movl	%eax, (%rdx)
.L60:
	.loc 1 175 0
	movl	$0, %eax
.L45:
	movq	%r10, %rsp
	.loc 1 176 0
	movq	-8(%rbp), %rbx
	leave
	.cfi_def_cfa 7, 8
	ret
	.cfi_endproc
.LFE3:
	.size	readFlt, .-readFlt
	.globl	printFlt
	.type	printFlt, @function
printFlt:
.LFB4:
	.loc 1 178 0
	.cfi_startproc
	pushq	%rbp
	.cfi_def_cfa_offset 16
	.cfi_offset 6, -16
	movq	%rsp, %rbp
	.cfi_def_cfa_register 6
	subq	$10080, %rsp
	movss	%xmm0, -10068(%rbp)
	.loc 1 178 0
	movq	%fs:40, %rax
	movq	%rax, -8(%rbp)
	xorl	%eax, %eax
	.loc 1 180 0
	movb	$48, -10059(%rbp)
	.loc 1 181 0
	movl	$0, -10056(%rbp)
	.loc 1 182 0
	movss	-10068(%rbp), %xmm0
	cvttss2si	%xmm0, %eax
	movl	%eax, -10044(%rbp)
	.loc 1 183 0
	cvtsi2ss	-10044(%rbp), %xmm0
	movss	-10068(%rbp), %xmm1
	subss	%xmm0, %xmm1
	movaps	%xmm1, %xmm0
	movss	%xmm0, -10040(%rbp)
	.loc 1 184 0
	xorps	%xmm0, %xmm0
	ucomiss	-10040(%rbp), %xmm0
	jbe	.L66
	.loc 1 184 0 is_stmt 0 discriminator 1
	movss	-10040(%rbp), %xmm1
	movss	.LC4(%rip), %xmm0
	xorps	%xmm1, %xmm0
	movss	%xmm0, -10040(%rbp)
.L66:
	.loc 1 185 0 is_stmt 1
	cmpl	$0, -10044(%rbp)
	jne	.L68
	.loc 1 186 0
	movl	-10056(%rbp), %eax
	leal	1(%rax), %edx
	movl	%edx, -10056(%rbp)
	cltq
	movzbl	-10059(%rbp), %edx
	movb	%dl, -10016(%rbp,%rax)
	jmp	.L69
.L68:
	.loc 1 188 0
	cmpl	$0, -10044(%rbp)
	jns	.L70
	.loc 1 189 0
	movl	-10056(%rbp), %eax
	leal	1(%rax), %edx
	movl	%edx, -10056(%rbp)
	cltq
	movb	$45, -10016(%rbp,%rax)
	.loc 1 190 0
	negl	-10044(%rbp)
	.loc 1 192 0
	jmp	.L71
.L70:
	jmp	.L71
.L72:
.LBB7:
	.loc 1 194 0
	movl	-10044(%rbp), %ecx
	movl	$1717986919, %edx
	movl	%ecx, %eax
	imull	%edx
	sarl	$2, %edx
	movl	%ecx, %eax
	sarl	$31, %eax
	subl	%eax, %edx
	movl	%edx, %eax
	sall	$2, %eax
	addl	%edx, %eax
	addl	%eax, %eax
	subl	%eax, %ecx
	movl	%ecx, %eax
	movl	%eax, -10028(%rbp)
	.loc 1 195 0
	movl	-10056(%rbp), %eax
	leal	1(%rax), %edx
	movl	%edx, -10056(%rbp)
	movl	-10028(%rbp), %edx
	movl	%edx, %ecx
	movzbl	-10059(%rbp), %edx
	addl	%ecx, %edx
	cltq
	movb	%dl, -10016(%rbp,%rax)
	.loc 1 196 0
	movl	-10044(%rbp), %ecx
	movl	$1717986919, %edx
	movl	%ecx, %eax
	imull	%edx
	sarl	$2, %edx
	movl	%ecx, %eax
	sarl	$31, %eax
	subl	%eax, %edx
	movl	%edx, %eax
	movl	%eax, -10044(%rbp)
.L71:
.LBE7:
	.loc 1 192 0 discriminator 1
	cmpl	$0, -10044(%rbp)
	jg	.L72
	.loc 1 198 0
	movzbl	-10016(%rbp), %eax
	cmpb	$45, %al
	jne	.L73
	.loc 1 199 0
	movl	$1, -10052(%rbp)
	jmp	.L74
.L73:
	.loc 1 201 0
	movl	$0, -10052(%rbp)
.L74:
	.loc 1 202 0
	movl	-10056(%rbp), %eax
	subl	$1, %eax
	movl	%eax, -10048(%rbp)
	.loc 1 203 0
	jmp	.L75
.L76:
.LBB8:
	.loc 1 205 0
	movl	-10052(%rbp), %eax
	cltq
	movzbl	-10016(%rbp,%rax), %eax
	movb	%al, -10058(%rbp)
	.loc 1 206 0
	movl	-10052(%rbp), %eax
	leal	1(%rax), %edx
	movl	%edx, -10052(%rbp)
	movl	-10048(%rbp), %edx
	movslq	%edx, %rdx
	movzbl	-10016(%rbp,%rdx), %edx
	cltq
	movb	%dl, -10016(%rbp,%rax)
	.loc 1 207 0
	movl	-10048(%rbp), %eax
	leal	-1(%rax), %edx
	movl	%edx, -10048(%rbp)
	cltq
	movzbl	-10058(%rbp), %edx
	movb	%dl, -10016(%rbp,%rax)
.L75:
.LBE8:
	.loc 1 203 0 discriminator 1
	movl	-10052(%rbp), %eax
	cmpl	-10048(%rbp), %eax
	jl	.L76
.L69:
	.loc 1 210 0
	movl	-10056(%rbp), %eax
	leal	1(%rax), %edx
	movl	%edx, -10056(%rbp)
	cltq
	movb	$46, -10016(%rbp,%rax)
	.loc 1 211 0
	xorps	%xmm0, %xmm0
	ucomiss	-10040(%rbp), %xmm0
	jp	.L77
	xorps	%xmm0, %xmm0
	ucomiss	-10040(%rbp), %xmm0
	jne	.L77
	.loc 1 212 0
	movl	-10056(%rbp), %eax
	leal	1(%rax), %edx
	movl	%edx, -10056(%rbp)
	cltq
	movb	$48, -10016(%rbp,%rax)
	jmp	.L79
.L77:
.LBB9:
	.loc 1 214 0
	movl	-10056(%rbp), %eax
	movl	%eax, -10052(%rbp)
	.loc 1 215 0
	movss	-10040(%rbp), %xmm1
	movss	.LC3(%rip), %xmm0
	mulss	%xmm1, %xmm0
	movss	%xmm0, -10040(%rbp)
	.loc 1 216 0
	movss	-10040(%rbp), %xmm0
	cvttss2si	%xmm0, %eax
	movl	%eax, -10036(%rbp)
	.loc 1 217 0
	movl	$0, -10032(%rbp)
	.loc 1 218 0
	jmp	.L80
.L82:
.LBB10:
	.loc 1 220 0
	movl	-10036(%rbp), %ecx
	movl	$1717986919, %edx
	movl	%ecx, %eax
	imull	%edx
	sarl	$2, %edx
	movl	%ecx, %eax
	sarl	$31, %eax
	subl	%eax, %edx
	movl	%edx, %eax
	sall	$2, %eax
	addl	%edx, %eax
	addl	%eax, %eax
	subl	%eax, %ecx
	movl	%ecx, %eax
	movl	%eax, -10024(%rbp)
	.loc 1 221 0
	cmpl	$0, -10024(%rbp)
	jne	.L81
	.loc 1 221 0 is_stmt 0 discriminator 1
	cmpl	$0, -10032(%rbp)
	jne	.L81
	.loc 1 223 0 is_stmt 1
	movl	-10036(%rbp), %ecx
	movl	$1717986919, %edx
	movl	%ecx, %eax
	imull	%edx
	sarl	$2, %edx
	movl	%ecx, %eax
	sarl	$31, %eax
	subl	%eax, %edx
	movl	%edx, %eax
	movl	%eax, -10036(%rbp)
	.loc 1 224 0
	jmp	.L80
.L81:
	.loc 1 227 0
	movl	$1, -10032(%rbp)
	.loc 1 228 0
	movl	-10056(%rbp), %eax
	leal	1(%rax), %edx
	movl	%edx, -10056(%rbp)
	movl	-10024(%rbp), %edx
	movl	%edx, %ecx
	movzbl	-10059(%rbp), %edx
	addl	%ecx, %edx
	cltq
	movb	%dl, -10016(%rbp,%rax)
	.loc 1 229 0
	movl	-10036(%rbp), %ecx
	movl	$1717986919, %edx
	movl	%ecx, %eax
	imull	%edx
	sarl	$2, %edx
	movl	%ecx, %eax
	sarl	$31, %eax
	subl	%eax, %edx
	movl	%edx, %eax
	movl	%eax, -10036(%rbp)
.L80:
.LBE10:
	.loc 1 218 0 discriminator 1
	cmpl	$0, -10036(%rbp)
	jg	.L82
	.loc 1 231 0
	movl	-10056(%rbp), %eax
	subl	$1, %eax
	movl	%eax, -10048(%rbp)
	.loc 1 232 0
	jmp	.L83
.L84:
.LBB11:
	.loc 1 234 0
	movl	-10052(%rbp), %eax
	cltq
	movzbl	-10016(%rbp,%rax), %eax
	movb	%al, -10057(%rbp)
	.loc 1 235 0
	movl	-10052(%rbp), %eax
	leal	1(%rax), %edx
	movl	%edx, -10052(%rbp)
	movl	-10048(%rbp), %edx
	movslq	%edx, %rdx
	movzbl	-10016(%rbp,%rdx), %edx
	cltq
	movb	%dl, -10016(%rbp,%rax)
	.loc 1 236 0
	movl	-10048(%rbp), %eax
	leal	-1(%rax), %edx
	movl	%edx, -10048(%rbp)
	cltq
	movzbl	-10057(%rbp), %edx
	movb	%dl, -10016(%rbp,%rax)
.L83:
.LBE11:
	.loc 1 232 0 discriminator 1
	movl	-10052(%rbp), %eax
	cmpl	-10048(%rbp), %eax
	jl	.L84
.L79:
.LBE9:
	.loc 1 239 0
	movl	-10056(%rbp), %eax
	cltq
	movb	$10, -10016(%rbp,%rax)
	.loc 1 240 0
	movl	-10056(%rbp), %eax
	addl	$1, %eax
	movl	%eax, -10020(%rbp)
	.loc 1 241 0
	leaq	-10016(%rbp), %rax
	movl	-10020(%rbp), %edx
	movq	%rax, %rsi
#APP
# 241 "ass2_15CS10061.c" 1
	movl $1, %eax 
	movl $1, %edi 
	syscall 
	
# 0 "" 2
	.loc 1 248 0
#NO_APP
	movl	-10020(%rbp), %eax
	.loc 1 249 0
	movq	-8(%rbp), %rdi
	xorq	%fs:40, %rdi
	je	.L86
	call	__stack_chk_fail
.L86:
	leave
	.cfi_def_cfa 7, 8
	ret
	.cfi_endproc
.LFE4:
	.size	printFlt, .-printFlt
	.section	.rodata
	.align 4
.LC0:
	.long	0
	.align 4
.LC1:
	.long	1065353216
	.align 4
.LC2:
	.long	1092616192
	.align 4
.LC3:
	.long	1232348160
	.align 16
.LC4:
	.long	2147483648
	.long	0
	.long	0
	.long	0
	.text
.Letext0:
	.section	.note.GNU-stack,"",@progbits
